; Function Attrs: nounwind uwtable
define zeroext range(i8 0, 2) i8 @l___private_Std_Internal_Rat_0__Std_Internal_decEqRat____x40_Std_Internal_Rat___hyg_111_(ptr noundef readonly captures(none) %0, ptr noundef readonly captures(none) %1) local_unnamed_addr #0 {
  %3 = getelementptr inbounds nuw i8, ptr %0, i64 8
  %4 = load ptr, ptr %3, align 8, !tbaa !4
  %5 = getelementptr inbounds nuw i8, ptr %0, i64 16
  %6 = load ptr, ptr %5, align 8, !tbaa !4
  %7 = getelementptr inbounds nuw i8, ptr %1, i64 8
  %8 = load ptr, ptr %7, align 8, !tbaa !4
  %9 = getelementptr inbounds nuw i8, ptr %1, i64 16
  %10 = load ptr, ptr %9, align 8, !tbaa !4
  %11 = ptrtoint ptr %4 to i64
  %12 = ptrtoint ptr %8 to i64
  %13 = and i64 %11, 1
  %14 = and i64 %13, %12
  %or.cond.not.i.i = icmp eq i64 %14, 0
  br i1 %or.cond.not.i.i, label %lean_int_dec_eq.exit, label %15, !prof !8

15:                                               ; preds = %2
  %16 = icmp eq ptr %4, %8
  br i1 %16, label %18, label %29

lean_int_dec_eq.exit:                             ; preds = %2
  %17 = tail call zeroext i1 @lean_int_big_eq(ptr noundef %4, ptr noundef %8) #5
  br i1 %17, label %18, label %29

18:                                               ; preds = %15, %lean_int_dec_eq.exit
  %19 = ptrtoint ptr %6 to i64
  %20 = and i64 %19, 1
  %21 = icmp ne i64 %20, 0
  %22 = ptrtoint ptr %10 to i64
  %23 = and i64 %22, 1
  %24 = icmp ne i64 %23, 0
  %or.cond = select i1 %21, i1 %24, i1 false
  br i1 %or.cond, label %25, label %.critedge.i, !prof !9

25:                                               ; preds = %18
  %26 = icmp eq ptr %6, %10
  br label %lean_nat_eq.exit

.critedge.i:                                      ; preds = %18
  %27 = tail call zeroext i1 @lean_nat_big_eq(ptr noundef %6, ptr noundef %10) #5
  br label %lean_nat_eq.exit

lean_nat_eq.exit:                                 ; preds = %25, %.critedge.i
  %.0.i = phi i1 [ %26, %25 ], [ %27, %.critedge.i ]
  %28 = zext i1 %.0.i to i8
  br label %29

29:                                               ; preds = %15, %lean_int_dec_eq.exit, %lean_nat_eq.exit
  %.0 = phi i8 [ %28, %lean_nat_eq.exit ], [ 0, %lean_int_dec_eq.exit ], [ 0, %15 ]
  ret i8 %.0
}